target datalayout = "e-m:e-p270:32:32-p271:32:32-p272:64:64-i64:64-i128:128-f80:128-n8:16:32:64-S128"
target triple = "x86_64-pc-linux-gnu"

%struct.ossl_param_st = type { ptr, i32, ptr, i64, i64 }
%struct.anon = type { i64, [20 x i8] }

@.str.17 = private unnamed_addr constant [34 x i8] c"../openssl/test/params_api_test.c\00", align 1
@.str.18 = private unnamed_addr constant [29 x i8] c"test_param_type_null(&param)\00", align 1
@.str.19 = private unnamed_addr constant [2 x i8] c"1\00", align 1
@.str.21 = private unnamed_addr constant [4 x i8] c"cmp\00", align 1
@.str.22 = private unnamed_addr constant [20 x i8] c"raw_values[n].value\00", align 1
@__const.test_param_uint.param = private unnamed_addr constant { ptr, i32, [4 x i8], ptr, i64, i64 } { ptr @.str.16, i32 2, [4 x i8] zeroinitializer, ptr null, i64 4, i64 -1 }, align 8
@.str.38 = private unnamed_addr constant [32 x i8] c"OSSL_PARAM_set_uint(&param, in)\00", align 1
@.str.39 = private unnamed_addr constant [33 x i8] c"OSSL_PARAM_get_uint(&param, &in)\00", align 1

; Function Attrs: nounwind uwtable
define internal void @le_copy(ptr noundef %0, i64 noundef %1, ptr noundef %2, i64 noundef %3) #0 {
  %5 = alloca ptr, align 8
  %6 = alloca i64, align 8
  %7 = alloca ptr, align 8
  %8 = alloca i64, align 8
  %9 = alloca i32, align 4
  store ptr %0, ptr %5, align 8, !tbaa !29
  store i64 %1, ptr %6, align 8, !tbaa !11
  store ptr %2, ptr %7, align 8, !tbaa !27
  store i64 %3, ptr %8, align 8, !tbaa !11
  call void @llvm.lifetime.start.p0(i64 4, ptr %9) #5
  store i32 1, ptr %9, align 4, !tbaa !4
  %10 = load ptr, ptr %5, align 8, !tbaa !29
  %11 = load ptr, ptr %7, align 8, !tbaa !27
  %12 = load i64, ptr %6, align 8, !tbaa !11
  call void @llvm.memcpy.p0.p0.i64(ptr align 1 %10, ptr align 1 %11, i64 %12, i1 false)
  call void @llvm.lifetime.end.p0(i64 4, ptr %9) #5
  ret void
}

; Function Attrs: nounwind uwtable
define internal i32 @test_param_uint(i32 noundef %0) #0 {
  %2 = alloca i32, align 4
  %3 = alloca i32, align 4
  %4 = alloca i32, align 4
  %5 = alloca i32, align 4
  %6 = alloca [20 x i8], align 16
  %7 = alloca [4 x i8], align 1
  %8 = alloca i64, align 8
  %9 = alloca %struct.ossl_param_st, align 8
  %10 = alloca i32, align 4
  store i32 %0, ptr %3, align 4, !tbaa !4
  call void @llvm.lifetime.start.p0(i64 4, ptr %4) #5
  call void @llvm.lifetime.start.p0(i64 4, ptr %5) #5
  call void @llvm.lifetime.start.p0(i64 20, ptr %6) #5
  call void @llvm.lifetime.start.p0(i64 4, ptr %7) #5
  call void @llvm.lifetime.start.p0(i64 8, ptr %8) #5
  %11 = load i32, ptr %3, align 4, !tbaa !4
  %12 = sext i32 %11 to i64
  %13 = getelementptr inbounds [14 x %struct.anon], ptr @raw_values, i64 0, i64 %12
  %14 = getelementptr inbounds nuw %struct.anon, ptr %13, i32 0, i32 0
  %15 = load i64, ptr %14, align 16, !tbaa !8
  %16 = icmp uge i64 %15, 4
  br i1 %16, label %17, label %18

17:                                               ; preds = %1
  br label %24

18:                                               ; preds = %1
  %19 = load i32, ptr %3, align 4, !tbaa !4
  %20 = sext i32 %19 to i64
  %21 = getelementptr inbounds [14 x %struct.anon], ptr @raw_values, i64 0, i64 %20
  %22 = getelementptr inbounds nuw %struct.anon, ptr %21, i32 0, i32 0
  %23 = load i64, ptr %22, align 16, !tbaa !8
  br label %24

24:                                               ; preds = %18, %17
  %25 = phi i64 [ 4, %17 ], [ %23, %18 ]
  store i64 %25, ptr %8, align 8, !tbaa !11
  call void @llvm.lifetime.start.p0(i64 40, ptr %9) #5
  call void @llvm.memcpy.p0.p0.i64(ptr align 8 %9, ptr align 8 @__const.test_param_uint.param, i64 40, i1 false)
  %26 = call i32 @test_param_type_null(ptr noundef %9)
  %27 = call i32 @test_int_eq(ptr noundef @.str.17, i32 noundef 262, ptr noundef @.str.18, ptr noundef @.str.19, i32 noundef %26, i32 noundef 1)
  %28 = icmp ne i32 %27, 0
  br i1 %28, label %30, label %29

29:                                               ; preds = %24
  store i32 0, ptr %2, align 4
  store i32 1, ptr %10, align 4
  br label %86

30:                                               ; preds = %24
  %31 = getelementptr inbounds [20 x i8], ptr %6, i64 0, i64 0
  call void @llvm.memset.p0.i64(ptr align 16 %31, i8 0, i64 20, i1 false)
  %32 = getelementptr inbounds [20 x i8], ptr %6, i64 0, i64 0
  %33 = load i32, ptr %3, align 4, !tbaa !4
  %34 = sext i32 %33 to i64
  %35 = getelementptr inbounds [14 x %struct.anon], ptr @raw_values, i64 0, i64 %34
  %36 = getelementptr inbounds nuw %struct.anon, ptr %35, i32 0, i32 1
  %37 = getelementptr inbounds [20 x i8], ptr %36, i64 0, i64 0
  call void @le_copy(ptr noundef %32, i64 noundef 4, ptr noundef %37, i64 noundef 4)
  %38 = getelementptr inbounds [20 x i8], ptr %6, i64 0, i64 0
  call void @llvm.memcpy.p0.p0.i64(ptr align 4 %4, ptr align 16 %38, i64 4, i1 false)
  %39 = getelementptr inbounds nuw %struct.ossl_param_st, ptr %9, i32 0, i32 2
  store ptr %5, ptr %39, align 8, !tbaa !12
  %40 = load i32, ptr %4, align 4, !tbaa !4
  %41 = call i32 @OSSL_PARAM_set_uint(ptr noundef %9, i32 noundef %40)
  %42 = icmp ne i32 %41, 0
  %43 = zext i1 %42 to i32
  %44 = call i32 @test_true(ptr noundef @.str.17, i32 noundef 269, ptr noundef @.str.38, i32 noundef %43)
  %45 = icmp ne i32 %44, 0
  br i1 %45, label %47, label %46

46:                                               ; preds = %30
  store i32 0, ptr %2, align 4
  store i32 1, ptr %10, align 4
  br label %86

47:                                               ; preds = %30
  %48 = getelementptr inbounds [4 x i8], ptr %7, i64 0, i64 0
  call void @le_copy(ptr noundef %48, i64 noundef 4, ptr noundef %5, i64 noundef 4)
  %49 = getelementptr inbounds [4 x i8], ptr %7, i64 0, i64 0
  %50 = load i64, ptr %8, align 8, !tbaa !11
  %51 = load i32, ptr %3, align 4, !tbaa !4
  %52 = sext i32 %51 to i64
  %53 = getelementptr inbounds [14 x %struct.anon], ptr @raw_values, i64 0, i64 %52
  %54 = getelementptr inbounds nuw %struct.anon, ptr %53, i32 0, i32 1
  %55 = getelementptr inbounds [20 x i8], ptr %54, i64 0, i64 0
  %56 = load i64, ptr %8, align 8, !tbaa !11
  %57 = call i32 @test_mem_eq(ptr noundef @.str.17, i32 noundef 272, ptr noundef @.str.21, ptr noundef @.str.22, ptr noundef %49, i64 noundef %50, ptr noundef %55, i64 noundef %56)
  %58 = icmp ne i32 %57, 0
  br i1 %58, label %60, label %59

59:                                               ; preds = %47
  store i32 0, ptr %2, align 4
  store i32 1, ptr %10, align 4
  br label %86

60:                                               ; preds = %47
  store i32 0, ptr %4, align 4, !tbaa !4
  %61 = call i32 @OSSL_PARAM_get_uint(ptr noundef %9, ptr noundef %4)
  %62 = icmp ne i32 %61, 0
  %63 = zext i1 %62 to i32
  %64 = call i32 @test_true(ptr noundef @.str.17, i32 noundef 275, ptr noundef @.str.39, i32 noundef %63)
  %65 = icmp ne i32 %64, 0
  br i1 %65, label %67, label %66

66:                                               ; preds = %60
  store i32 0, ptr %2, align 4
  store i32 1, ptr %10, align 4
  br label %86

67:                                               ; preds = %60
  %68 = getelementptr inbounds [4 x i8], ptr %7, i64 0, i64 0
  call void @le_copy(ptr noundef %68, i64 noundef 4, ptr noundef %4, i64 noundef 4)
  %69 = getelementptr inbounds [4 x i8], ptr %7, i64 0, i64 0
  %70 = load i32, ptr %3, align 4, !tbaa !4
  %71 = sext i32 %70 to i64
  %72 = getelementptr inbounds [14 x %struct.anon], ptr @raw_values, i64 0, i64 %71
  %73 = getelementptr inbounds nuw %struct.anon, ptr %72, i32 0, i32 1
  %74 = getelementptr inbounds [20 x i8], ptr %73, i64 0, i64 0
  %75 = call i32 @test_mem_eq(ptr noundef @.str.17, i32 noundef 278, ptr noundef @.str.21, ptr noundef @.str.22, ptr noundef %69, i64 noundef 4, ptr noundef %74, i64 noundef 4)
  %76 = icmp ne i32 %75, 0
  br i1 %76, label %78, label %77

77:                                               ; preds = %67
  store i32 0, ptr %2, align 4
  store i32 1, ptr %10, align 4
  br label %86

78:                                               ; preds = %67
  %79 = getelementptr inbounds nuw %struct.ossl_param_st, ptr %9, i32 0, i32 2
  store ptr %5, ptr %79, align 8, !tbaa !12
  %80 = load i32, ptr %3, align 4, !tbaa !4
  %81 = sext i32 %80 to i64
  %82 = getelementptr inbounds [14 x %struct.anon], ptr @raw_values, i64 0, i64 %81
  %83 = getelementptr inbounds nuw %struct.anon, ptr %82, i32 0, i32 1
  %84 = getelementptr inbounds [20 x i8], ptr %83, i64 0, i64 0
  %85 = call i32 @test_param_type_extra(ptr noundef %9, ptr noundef %84, i64 noundef 4)
  store i32 %85, ptr %2, align 4
  store i32 1, ptr %10, align 4
  br label %86

86:                                               ; preds = %78, %77, %66, %59, %46, %29
  call void @llvm.lifetime.end.p0(i64 40, ptr %9) #5
  call void @llvm.lifetime.end.p0(i64 8, ptr %8) #5
  call void @llvm.lifetime.end.p0(i64 4, ptr %7) #5
  call void @llvm.lifetime.end.p0(i64 20, ptr %6) #5
  call void @llvm.lifetime.end.p0(i64 4, ptr %5) #5
  call void @llvm.lifetime.end.p0(i64 4, ptr %4) #5
  %87 = load i32, ptr %2, align 4
  ret i32 %87
}