; Function Attrs: nounwind uwtable
define internal range(i32 0, 2) i32 @test_param_uint(i32 noundef %0) #0 {
  %2 = alloca i32, align 4
  %3 = alloca i32, align 4
  %4 = alloca [4 x i8], align 4
  %5 = alloca %struct.ossl_param_st, align 8
  call void @llvm.lifetime.start.p0(i64 4, ptr nonnull %2) #5
  call void @llvm.lifetime.start.p0(i64 4, ptr nonnull %3) #5
  call void @llvm.lifetime.start.p0(i64 4, ptr nonnull %4) #5
  %6 = sext i32 %0 to i64
  %7 = getelementptr inbounds [14 x %struct.anon], ptr @raw_values, i64 0, i64 %6
  %8 = load i64, ptr %7, align 16, !tbaa !4
  %spec.select = tail call i64 @llvm.umin.i64(i64 %8, i64 4)
  call void @llvm.lifetime.start.p0(i64 40, ptr nonnull %5) #5
  call void @llvm.memcpy.p0.p0.i64(ptr noundef nonnull align 8 dereferenceable(40) %5, ptr noundef nonnull align 8 dereferenceable(40) @__const.test_param_uint32.param, i64 40, i1 false)
  %9 = call fastcc i32 @test_param_type_null(ptr noundef %5)
  %10 = call i32 @test_int_eq(ptr noundef nonnull @.str.17, i32 noundef 262, ptr noundef nonnull @.str.18, ptr noundef nonnull @.str.19, i32 noundef %9, i32 noundef 1) #5
  %.not = icmp eq i32 %10, 0
  br i1 %.not, label %31, label %11

11:                                               ; preds = %1
  %12 = getelementptr inbounds nuw i8, ptr %7, i64 8
  %.sroa.0.0.copyload = load i32, ptr %12, align 8
  %13 = getelementptr inbounds nuw i8, ptr %5, i64 16
  store ptr %3, ptr %13, align 8, !tbaa !9
  %14 = call i32 @OSSL_PARAM_set_uint(ptr noundef nonnull %5, i32 noundef %.sroa.0.0.copyload) #5
  %15 = icmp ne i32 %14, 0
  %16 = zext i1 %15 to i32
  %17 = call i32 @test_true(ptr noundef nonnull @.str.17, i32 noundef 269, ptr noundef nonnull @.str.38, i32 noundef %16) #5
  %.not10 = icmp eq i32 %17, 0
  br i1 %.not10, label %31, label %18

18:                                               ; preds = %11
  %19 = load i32, ptr %3, align 4
  store i32 %19, ptr %4, align 4
  %20 = call i32 @test_mem_eq(ptr noundef nonnull @.str.17, i32 noundef 272, ptr noundef nonnull @.str.21, ptr noundef nonnull @.str.22, ptr noundef nonnull %4, i64 noundef %spec.select, ptr noundef nonnull %12, i64 noundef %spec.select) #5
  %.not11 = icmp eq i32 %20, 0
  br i1 %.not11, label %31, label %21

21:                                               ; preds = %18
  store i32 0, ptr %2, align 4, !tbaa !14
  %22 = call i32 @OSSL_PARAM_get_uint(ptr noundef nonnull %5, ptr noundef nonnull %2) #5
  %23 = icmp ne i32 %22, 0
  %24 = zext i1 %23 to i32
  %25 = call i32 @test_true(ptr noundef nonnull @.str.17, i32 noundef 275, ptr noundef nonnull @.str.39, i32 noundef %24) #5
  %.not12 = icmp eq i32 %25, 0
  br i1 %.not12, label %31, label %26

26:                                               ; preds = %21
  %27 = load i32, ptr %2, align 4
  store i32 %27, ptr %4, align 4
  %28 = call i32 @test_mem_eq(ptr noundef nonnull @.str.17, i32 noundef 278, ptr noundef nonnull @.str.21, ptr noundef nonnull @.str.22, ptr noundef nonnull %4, i64 noundef 4, ptr noundef nonnull %12, i64 noundef 4) #5
  %.not13 = icmp eq i32 %28, 0
  br i1 %.not13, label %31, label %29

29:                                               ; preds = %26
  store ptr %3, ptr %13, align 8, !tbaa !9
  %30 = call fastcc i32 @test_param_type_extra(ptr noundef %5, ptr noundef nonnull %12, i64 noundef 4)
  br label %31

31:                                               ; preds = %26, %21, %18, %11, %1, %29
  %.0 = phi i32 [ %30, %29 ], [ 0, %1 ], [ 0, %11 ], [ 0, %18 ], [ 0, %21 ], [ 0, %26 ]
  call void @llvm.lifetime.end.p0(i64 40, ptr nonnull %5) #5
  call void @llvm.lifetime.end.p0(i64 4, ptr nonnull %4) #5
  call void @llvm.lifetime.end.p0(i64 4, ptr nonnull %3) #5
  call void @llvm.lifetime.end.p0(i64 4, ptr nonnull %2) #5
  ret i32 %.0
}